; Function Attrs: nounwind uwtable
define internal ptr @_operator_indexOf(ptr readnone captures(none) %0, ptr noundef readonly captures(none) %1, i64 noundef %2) #0 {
  %or.cond = icmp eq i64 %2, 2
  br i1 %or.cond, label %6, label %4

4:                                                ; preds = %3
  %5 = tail call i32 @_PyArg_CheckPositional(ptr noundef nonnull @.str.3, i64 noundef %2, i64 noundef 2, i64 noundef 2) #7
  %.not = icmp eq i32 %5, 0
  br i1 %.not, label %16, label %6

6:                                                ; preds = %3, %4
  %7 = load ptr, ptr %1, align 8, !tbaa !17
  %8 = getelementptr i8, ptr %1, i64 8
  %9 = load ptr, ptr %8, align 8, !tbaa !17
  %10 = tail call i64 @PySequence_Index(ptr noundef %7, ptr noundef %9) #7
  %11 = icmp eq i64 %10, -1
  br i1 %11, label %12, label %14

12:                                               ; preds = %6
  %13 = tail call ptr @PyErr_Occurred() #7
  %.not11 = icmp eq ptr %13, null
  br i1 %.not11, label %14, label %16

14:                                               ; preds = %12, %6
  %15 = tail call ptr @PyLong_FromSsize_t(i64 noundef %10) #7
  br label %16

16:                                               ; preds = %12, %4, %14
  %.0 = phi ptr [ null, %12 ], [ %15, %14 ], [ null, %4 ]
  ret ptr %.0
}